; Function Attrs: mustprogress uwtable
define hidden void @_ZN3ade4Node6unlinkEv(ptr noundef nonnull align 8 captures(none) dereferenceable(72) %0) local_unnamed_addr #2 align 2 personality ptr @__gxx_personality_v0 {
  %2 = getelementptr inbounds nuw i8, ptr %0, i64 24
  %3 = load ptr, ptr %2, align 8, !tbaa !21
  %4 = getelementptr inbounds nuw i8, ptr %0, i64 32
  %5 = load ptr, ptr %4, align 8, !tbaa !21
  %.not19 = icmp eq ptr %3, %5
  br i1 %.not19, label %_ZNSt6vectorIPN3ade4EdgeESaIS2_EE5clearEv.exit, label %.lr.ph

.lr.ph:                                           ; preds = %1
  %6 = getelementptr inbounds nuw i8, ptr %0, i64 16
  br label %13

._crit_edge:                                      ; preds = %13
  %.pre = load ptr, ptr %2, align 8, !tbaa !22
  %.pre25 = load ptr, ptr %4, align 8, !tbaa !23
  %.not.i.i = icmp eq ptr %.pre25, %.pre
  br i1 %.not.i.i, label %_ZNSt6vectorIPN3ade4EdgeESaIS2_EE5clearEv.exit, label %7

7:                                                ; preds = %._crit_edge
  store ptr %.pre, ptr %4, align 8, !tbaa !23
  br label %_ZNSt6vectorIPN3ade4EdgeESaIS2_EE5clearEv.exit

_ZNSt6vectorIPN3ade4EdgeESaIS2_EE5clearEv.exit:   ; preds = %1, %._crit_edge, %7
  %8 = getelementptr inbounds nuw i8, ptr %0, i64 48
  %9 = load ptr, ptr %8, align 8, !tbaa !21
  %10 = getelementptr inbounds nuw i8, ptr %0, i64 56
  %11 = load ptr, ptr %10, align 8, !tbaa !21
  %.not1821 = icmp eq ptr %9, %11
  br i1 %.not1821, label %_ZNSt6vectorIPN3ade4EdgeESaIS2_EE5clearEv.exit10, label %.lr.ph23

.lr.ph23:                                         ; preds = %_ZNSt6vectorIPN3ade4EdgeESaIS2_EE5clearEv.exit
  %12 = getelementptr inbounds nuw i8, ptr %0, i64 16
  br label %19

13:                                               ; preds = %.lr.ph, %13
  %.sroa.015.020 = phi ptr [ %3, %.lr.ph ], [ %17, %13 ]
  %14 = load ptr, ptr %.sroa.015.020, align 8, !tbaa !24
  %15 = getelementptr inbounds nuw i8, ptr %14, i64 24
  store ptr null, ptr %15, align 8, !tbaa !26
  %16 = load ptr, ptr %6, align 8, !tbaa !3
  tail call void @_ZN3ade5Graph10removeEdgeEPNS_4EdgeE(ptr noundef nonnull align 8 dereferenceable(168) %16, ptr noundef %14)
  %17 = getelementptr inbounds nuw i8, ptr %.sroa.015.020, i64 8
  %.not = icmp eq ptr %17, %5
  br i1 %.not, label %._crit_edge, label %13

._crit_edge24:                                    ; preds = %19
  %.pre26 = load ptr, ptr %8, align 8, !tbaa !22
  %.pre27 = load ptr, ptr %10, align 8, !tbaa !23
  %.not.i.i9 = icmp eq ptr %.pre27, %.pre26
  br i1 %.not.i.i9, label %_ZNSt6vectorIPN3ade4EdgeESaIS2_EE5clearEv.exit10, label %18

18:                                               ; preds = %._crit_edge24
  store ptr %.pre26, ptr %10, align 8, !tbaa !23
  br label %_ZNSt6vectorIPN3ade4EdgeESaIS2_EE5clearEv.exit10

_ZNSt6vectorIPN3ade4EdgeESaIS2_EE5clearEv.exit10: ; preds = %_ZNSt6vectorIPN3ade4EdgeESaIS2_EE5clearEv.exit, %._crit_edge24, %18
  ret void

19:                                               ; preds = %.lr.ph23, %19
  %.sroa.011.022 = phi ptr [ %9, %.lr.ph23 ], [ %23, %19 ]
  %20 = load ptr, ptr %.sroa.011.022, align 8, !tbaa !24
  %21 = getelementptr inbounds nuw i8, ptr %20, i64 16
  store ptr null, ptr %21, align 8, !tbaa !31
  %22 = load ptr, ptr %12, align 8, !tbaa !3
  tail call void @_ZN3ade5Graph10removeEdgeEPNS_4EdgeE(ptr noundef nonnull align 8 dereferenceable(168) %22, ptr noundef %20)
  %23 = getelementptr inbounds nuw i8, ptr %.sroa.011.022, i64 8
  %.not18 = icmp eq ptr %23, %11
  br i1 %.not18, label %._crit_edge24, label %19
}